target datalayout = "e-m:e-p270:32:32-p271:32:32-p272:64:64-i64:64-i128:128-f80:128-n8:16:32:64-S128"
target triple = "x86_64-pc-linux-gnu"

%struct.pmix_proc = type { [256 x i8], i32 }
%struct.pmix_object_t = type { %union.pthread_mutex_t, ptr, i32, %struct.pmix_tma }
%union.pthread_mutex_t = type { %struct.__pthread_mutex_s }
%struct.__pthread_mutex_s = type { i32, i32, i32, i32, i32, i16, i16, %struct.__pthread_internal_list }
%struct.__pthread_internal_list = type { ptr, ptr }
%struct.pmix_tma = type { ptr, ptr, ptr, ptr, ptr, ptr, ptr, ptr }
%struct.pmix_iof_deliver_t = type { %struct.pmix_object_t, %struct.pmix_proc, %struct.pmix_byte_object }
%struct.pmix_byte_object = type { ptr, i64 }

; Function Attrs: nounwind uwtable
define internal void @pddes(ptr noundef %0) #0 {
  %2 = alloca ptr, align 8
  store ptr %0, ptr %2, align 8, !tbaa !17
  %3 = load ptr, ptr %2, align 8, !tbaa !17
  %4 = getelementptr inbounds nuw %struct.pmix_iof_deliver_t, ptr %3, i32 0, i32 2
  %5 = getelementptr inbounds nuw %struct.pmix_byte_object, ptr %4, i32 0, i32 0
  %6 = load ptr, ptr %5, align 8, !tbaa !60
  %7 = icmp ne ptr null, %6
  br i1 %7, label %8, label %13

8:                                                ; preds = %1
  %9 = load ptr, ptr %2, align 8, !tbaa !17
  %10 = getelementptr inbounds nuw %struct.pmix_iof_deliver_t, ptr %9, i32 0, i32 2
  %11 = getelementptr inbounds nuw %struct.pmix_byte_object, ptr %10, i32 0, i32 0
  %12 = load ptr, ptr %11, align 8, !tbaa !60
  call void @free(ptr noundef %12) #11
  br label %13

13:                                               ; preds = %8, %1
  ret void
}